target datalayout = "e-m:e-p270:32:32-p271:32:32-p272:64:64-i64:64-i128:128-f80:128-n8:16:32:64-S128"
target triple = "x86_64-pc-linux-gnu"

%struct.wtap = type { ptr, ptr, i8, i32, i32, ptr, ptr, ptr, i32, ptr, ptr, ptr, ptr, ptr, ptr, ptr, ptr, ptr, ptr, i32, i32, ptr, ptr, ptr, ptr }
%struct._mpeg_magic = type { i64, ptr, i8 }
%struct.mpeg_t = type { %struct.nstime_t, i64, i8 }
%struct.nstime_t = type { i64, i32 }

@mpeg_file_type_subtype = internal global i32 -1, align 4

; Function Attrs: null_pointer_is_valid sspstrong uwtable
define hidden i32 @mpeg_open(ptr noundef %0, ptr noundef %1, ptr noundef %2) #0 {
  %4 = alloca i32, align 4
  %5 = alloca ptr, align 8
  %6 = alloca ptr, align 8
  %7 = alloca ptr, align 8
  %8 = alloca [16 x i8], align 16
  %9 = alloca ptr, align 8
  %10 = alloca ptr, align 8
  %11 = alloca i32, align 4
  %12 = alloca i64, align 8
  %13 = alloca i64, align 8
  %14 = alloca ptr, align 8
  %15 = alloca ptr, align 8
  store ptr %0, ptr %5, align 8
  store ptr %1, ptr %6, align 8
  store ptr %2, ptr %7, align 8
  call void @llvm.lifetime.start.p0(i64 16, ptr %8) #8
  call void @llvm.lifetime.start.p0(i64 8, ptr %9) #8
  call void @llvm.lifetime.start.p0(i64 8, ptr %10) #8
  %16 = load ptr, ptr %5, align 8
  %17 = getelementptr inbounds nuw %struct.wtap, ptr %16, i32 0, i32 0
  %18 = load ptr, ptr %17, align 8
  %19 = getelementptr inbounds [16 x i8], ptr %8, i64 0, i64 0
  %20 = load ptr, ptr %6, align 8
  %21 = load ptr, ptr %7, align 8
  %22 = call zeroext i1 @wtap_read_bytes(ptr noundef %18, ptr noundef %19, i32 noundef 16, ptr noundef %20, ptr noundef %21)
  br i1 %22, label %29, label %23

23:                                               ; preds = %3
  %24 = load ptr, ptr %6, align 8
  %25 = load i32, ptr %24, align 4
  %26 = icmp ne i32 %25, -12
  br i1 %26, label %27, label %28

27:                                               ; preds = %23
  store i32 -1, ptr %4, align 4
  store i32 1, ptr %11, align 4
  br label %124

28:                                               ; preds = %23
  store i32 0, ptr %4, align 4
  store i32 1, ptr %11, align 4
  br label %124

29:                                               ; preds = %3
  store ptr @magic, ptr %9, align 8
  br label %30

30:                                               ; preds = %47, %29
  %31 = load ptr, ptr %9, align 8
  %32 = getelementptr inbounds nuw %struct._mpeg_magic, ptr %31, i32 0, i32 1
  %33 = load ptr, ptr %32, align 8
  %34 = icmp ne ptr %33, null
  br i1 %34, label %35, label %50

35:                                               ; preds = %30
  %36 = getelementptr inbounds [16 x i8], ptr %8, i64 0, i64 0
  %37 = load ptr, ptr %9, align 8
  %38 = getelementptr inbounds nuw %struct._mpeg_magic, ptr %37, i32 0, i32 1
  %39 = load ptr, ptr %38, align 8
  %40 = load ptr, ptr %9, align 8
  %41 = getelementptr inbounds nuw %struct._mpeg_magic, ptr %40, i32 0, i32 0
  %42 = load i64, ptr %41, align 8
  %43 = call i32 @memcmp(ptr noundef %36, ptr noundef %39, i64 noundef %42) #9
  %44 = icmp eq i32 %43, 0
  br i1 %44, label %45, label %46

45:                                               ; preds = %35
  br label %51

46:                                               ; preds = %35
  br label %47

47:                                               ; preds = %46
  %48 = load ptr, ptr %9, align 8
  %49 = getelementptr %struct._mpeg_magic, ptr %48, i32 1
  store ptr %49, ptr %9, align 8
  br label %30, !llvm.loop !6

50:                                               ; preds = %30
  store i32 0, ptr %4, align 4
  store i32 1, ptr %11, align 4
  br label %124

51:                                               ; preds = %45
  %52 = load ptr, ptr %5, align 8
  %53 = getelementptr inbounds nuw %struct.wtap, ptr %52, i32 0, i32 0
  %54 = load ptr, ptr %53, align 8
  %55 = load ptr, ptr %6, align 8
  %56 = call i64 @file_seek(ptr noundef %54, i64 noundef 0, i32 noundef 0, ptr noundef %55)
  %57 = icmp eq i64 %56, -1
  br i1 %57, label %58, label %59

58:                                               ; preds = %51
  store i32 -1, ptr %4, align 4
  store i32 1, ptr %11, align 4
  br label %124

59:                                               ; preds = %51
  %60 = load i32, ptr @mpeg_file_type_subtype, align 4
  %61 = load ptr, ptr %5, align 8
  %62 = getelementptr inbounds nuw %struct.wtap, ptr %61, i32 0, i32 3
  store i32 %60, ptr %62, align 4
  %63 = load ptr, ptr %5, align 8
  %64 = getelementptr inbounds nuw %struct.wtap, ptr %63, i32 0, i32 19
  store i32 96, ptr %64, align 8
  %65 = load ptr, ptr %5, align 8
  %66 = getelementptr inbounds nuw %struct.wtap, ptr %65, i32 0, i32 20
  store i32 9, ptr %66, align 4
  %67 = load ptr, ptr %5, align 8
  %68 = getelementptr inbounds nuw %struct.wtap, ptr %67, i32 0, i32 15
  store ptr @mpeg_read, ptr %68, align 8
  %69 = load ptr, ptr %5, align 8
  %70 = getelementptr inbounds nuw %struct.wtap, ptr %69, i32 0, i32 16
  store ptr @mpeg_seek_read, ptr %70, align 8
  %71 = load ptr, ptr %5, align 8
  %72 = getelementptr inbounds nuw %struct.wtap, ptr %71, i32 0, i32 4
  store i32 0, ptr %72, align 8
  call void @llvm.lifetime.start.p0(i64 8, ptr %12) #8
  store i64 1, ptr %12, align 8
  call void @llvm.lifetime.start.p0(i64 8, ptr %13) #8
  store i64 32, ptr %13, align 8
  call void @llvm.lifetime.start.p0(i64 8, ptr %14) #8
  %73 = load i64, ptr %13, align 8
  %74 = icmp eq i64 %73, 1
  br i1 %74, label %75, label %78

75:                                               ; preds = %59
  %76 = load i64, ptr %12, align 8
  %77 = call noalias ptr @g_malloc(i64 noundef %76) #10
  store ptr %77, ptr %14, align 8
  br label %99

78:                                               ; preds = %59
  %79 = load i64, ptr %12, align 8
  %80 = call i1 @llvm.is.constant.i64(i64 %79)
  br i1 %80, label %81, label %94

81:                                               ; preds = %78
  %82 = load i64, ptr %13, align 8
  %83 = icmp eq i64 %82, 0
  br i1 %83, label %89, label %84

84:                                               ; preds = %81
  %85 = load i64, ptr %12, align 8
  %86 = load i64, ptr %13, align 8
  %87 = udiv i64 -1, %86
  %88 = icmp ule i64 %85, %87
  br i1 %88, label %89, label %94

89:                                               ; preds = %84, %81
  %90 = load i64, ptr %12, align 8
  %91 = load i64, ptr %13, align 8
  %92 = mul i64 %90, %91
  %93 = call noalias ptr @g_malloc(i64 noundef %92) #10
  store ptr %93, ptr %14, align 8
  br label %98

94:                                               ; preds = %84, %78
  %95 = load i64, ptr %12, align 8
  %96 = load i64, ptr %13, align 8
  %97 = call noalias ptr @g_malloc_n(i64 noundef %95, i64 noundef %96) #11
  store ptr %97, ptr %14, align 8
  br label %98

98:                                               ; preds = %94, %89
  br label %99

99:                                               ; preds = %98, %75
  %100 = load ptr, ptr %14, align 8
  store ptr %100, ptr %15, align 8
  call void @llvm.lifetime.end.p0(i64 8, ptr %14) #8
  call void @llvm.lifetime.end.p0(i64 8, ptr %13) #8
  call void @llvm.lifetime.end.p0(i64 8, ptr %12) #8
  %101 = load ptr, ptr %15, align 8
  store ptr %101, ptr %10, align 8
  %102 = load ptr, ptr %10, align 8
  %103 = load ptr, ptr %5, align 8
  %104 = getelementptr inbounds nuw %struct.wtap, ptr %103, i32 0, i32 13
  store ptr %102, ptr %104, align 8
  %105 = load ptr, ptr %10, align 8
  %106 = getelementptr inbounds nuw %struct.mpeg_t, ptr %105, i32 0, i32 0
  %107 = getelementptr inbounds nuw %struct.nstime_t, ptr %106, i32 0, i32 0
  store i64 0, ptr %107, align 8
  %108 = load ptr, ptr %10, align 8
  %109 = getelementptr inbounds nuw %struct.mpeg_t, ptr %108, i32 0, i32 0
  %110 = getelementptr inbounds nuw %struct.nstime_t, ptr %109, i32 0, i32 1
  store i32 0, ptr %110, align 8
  %111 = load ptr, ptr %10, align 8
  %112 = getelementptr inbounds nuw %struct.mpeg_t, ptr %111, i32 0, i32 0
  %113 = getelementptr inbounds nuw %struct.nstime_t, ptr %112, i32 0, i32 0
  %114 = load i64, ptr %113, align 8
  %115 = load ptr, ptr %10, align 8
  %116 = getelementptr inbounds nuw %struct.mpeg_t, ptr %115, i32 0, i32 1
  store i64 %114, ptr %116, align 8
  %117 = load ptr, ptr %9, align 8
  %118 = getelementptr inbounds nuw %struct._mpeg_magic, ptr %117, i32 0, i32 2
  %119 = load i8, ptr %118, align 8, !range !8, !noundef !9
  %120 = trunc i8 %119 to i1
  %121 = load ptr, ptr %10, align 8
  %122 = getelementptr inbounds nuw %struct.mpeg_t, ptr %121, i32 0, i32 2
  %123 = zext i1 %120 to i8
  store i8 %123, ptr %122, align 8
  store i32 1, ptr %4, align 4
  store i32 1, ptr %11, align 4
  br label %124

124:                                              ; preds = %99, %58, %50, %28, %27
  call void @llvm.lifetime.end.p0(i64 8, ptr %10) #8
  call void @llvm.lifetime.end.p0(i64 8, ptr %9) #8
  call void @llvm.lifetime.end.p0(i64 16, ptr %8) #8
  %125 = load i32, ptr %4, align 4
  ret i32 %125
}