; Function Attrs: null_pointer_is_valid sspstrong uwtable
define hidden range(i32 -1, 2) i32 @mpeg_open(ptr noundef captures(none) %0, ptr noundef %1, ptr noundef %2) local_unnamed_addr #0 {
  %4 = alloca [16 x i8], align 16
  call void @llvm.lifetime.start.p0(i64 16, ptr nonnull %4) #7
  %5 = load ptr, ptr %0, align 8
  %6 = call zeroext i1 @wtap_read_bytes(ptr noundef %5, ptr noundef nonnull %4, i32 noundef 16, ptr noundef %1, ptr noundef %2)
  br i1 %6, label %.preheader, label %8

.preheader:                                       ; preds = %3
  %7 = load ptr, ptr getelementptr inbounds nuw (i8, ptr @magic, i64 8), align 8
  %.not3941 = icmp eq ptr %7, null
  br i1 %.not3941, label %.loopexit, label %.lr.ph

8:                                                ; preds = %3
  %9 = load i32, ptr %1, align 4
  %.not = icmp ne i32 %9, -12
  %. = sext i1 %.not to i32
  br label %.loopexit

.lr.ph:                                           ; preds = %.preheader, %13
  %10 = phi ptr [ %16, %13 ], [ %7, %.preheader ]
  %.03742 = phi ptr [ %14, %13 ], [ @magic, %.preheader ]
  %11 = load i64, ptr %.03742, align 8
  %bcmp = call i32 @bcmp(ptr nonnull %4, ptr nonnull %10, i64 %11)
  %12 = icmp eq i32 %bcmp, 0
  br i1 %12, label %17, label %13

13:                                               ; preds = %.lr.ph
  %14 = getelementptr i8, ptr %.03742, i64 24
  %15 = getelementptr i8, ptr %.03742, i64 32
  %16 = load ptr, ptr %15, align 8
  %.not39 = icmp eq ptr %16, null
  br i1 %.not39, label %.loopexit, label %.lr.ph, !llvm.loop !6

17:                                               ; preds = %.lr.ph
  %18 = load ptr, ptr %0, align 8
  %19 = call i64 @file_seek(ptr noundef %18, i64 noundef 0, i32 noundef 0, ptr noundef %1)
  %20 = icmp eq i64 %19, -1
  br i1 %20, label %.loopexit, label %21

21:                                               ; preds = %17
  %22 = load i32, ptr @mpeg_file_type_subtype, align 4
  %23 = getelementptr inbounds nuw i8, ptr %0, i64 20
  store i32 %22, ptr %23, align 4
  %24 = getelementptr inbounds nuw i8, ptr %0, i64 144
  store i32 96, ptr %24, align 8
  %25 = getelementptr inbounds nuw i8, ptr %0, i64 148
  store i32 9, ptr %25, align 4
  %26 = getelementptr inbounds nuw i8, ptr %0, i64 112
  store ptr @mpeg_read, ptr %26, align 8
  %27 = getelementptr inbounds nuw i8, ptr %0, i64 120
  store ptr @mpeg_seek_read, ptr %27, align 8
  %28 = getelementptr inbounds nuw i8, ptr %0, i64 24
  store i32 0, ptr %28, align 8
  %29 = call noalias dereferenceable_or_null(32) ptr @g_malloc(i64 noundef 32) #8
  %30 = getelementptr inbounds nuw i8, ptr %0, i64 96
  store ptr %29, ptr %30, align 8
  store i64 0, ptr %29, align 8
  %31 = getelementptr inbounds nuw i8, ptr %29, i64 8
  store i32 0, ptr %31, align 8
  %32 = getelementptr inbounds nuw i8, ptr %29, i64 16
  store i64 0, ptr %32, align 8
  %33 = getelementptr inbounds nuw i8, ptr %.03742, i64 16
  %34 = load i8, ptr %33, align 8, !range !8, !noundef !9
  %35 = getelementptr inbounds nuw i8, ptr %29, i64 24
  store i8 %34, ptr %35, align 8
  br label %.loopexit

.loopexit:                                        ; preds = %13, %.preheader, %17, %8, %21
  %.0 = phi i32 [ 1, %21 ], [ %., %8 ], [ -1, %17 ], [ 0, %.preheader ], [ 0, %13 ]
  call void @llvm.lifetime.end.p0(i64 16, ptr nonnull %4) #7
  ret i32 %.0
}